target datalayout = "e-m:e-p270:32:32-p271:32:32-p272:64:64-i64:64-i128:128-f80:128-n8:16:32:64-S128"
target triple = "x86_64-pc-linux-gnu"

@extension_type_table = internal constant [29 x i32] [i32 255, i32 0, i32 1, i32 5, i32 10, i32 13, i32 14, i32 15, i32 16, i32 18, i32 19, i32 20, i32 21, i32 41, i32 42, i32 43, i32 44, i32 45, i32 47, i32 48, i32 49, i32 50, i32 51, i32 4, i32 11, i32 22, i32 23, i32 35, i32 28], align 16
@.str.8 = private unnamed_addr constant [7 x i8] c"exists\00", align 1
@.str.9 = private unnamed_addr constant [15 x i8] c"does not exist\00", align 1

; Function Attrs: nounwind uwtable
define hidden void @mbedtls_ssl_print_extensions(ptr noundef %0, i32 noundef %1, ptr noundef %2, i32 noundef %3, i32 noundef %4, i32 noundef %5, ptr noundef %6) #0 {
  %8 = alloca ptr, align 8
  %9 = alloca i32, align 4
  %10 = alloca ptr, align 8
  %11 = alloca i32, align 4
  %12 = alloca i32, align 4
  %13 = alloca i32, align 4
  %14 = alloca ptr, align 8
  %15 = alloca i32, align 4
  store ptr %0, ptr %8, align 8, !tbaa !27
  store i32 %1, ptr %9, align 4, !tbaa !10
  store ptr %2, ptr %10, align 8, !tbaa !29
  store i32 %3, ptr %11, align 4, !tbaa !10
  store i32 %4, ptr %12, align 4, !tbaa !10
  store i32 %5, ptr %13, align 4, !tbaa !10
  store ptr %6, ptr %14, align 8, !tbaa !29
  call void @llvm.lifetime.start.p0(i64 4, ptr %15) #11
  store i32 0, ptr %15, align 4, !tbaa !10
  br label %16

16:                                               ; preds = %38, %7
  %17 = load i32, ptr %15, align 4, !tbaa !10
  %18 = zext i32 %17 to i64
  %19 = icmp ult i64 %18, 29
  br i1 %19, label %21, label %20

20:                                               ; preds = %16
  call void @llvm.lifetime.end.p0(i64 4, ptr %15) #11
  br label %41

21:                                               ; preds = %16
  %22 = load ptr, ptr %8, align 8, !tbaa !27
  %23 = load i32, ptr %9, align 4, !tbaa !10
  %24 = load ptr, ptr %10, align 8, !tbaa !29
  %25 = load i32, ptr %11, align 4, !tbaa !10
  %26 = load i32, ptr %12, align 4, !tbaa !10
  %27 = load i32, ptr %15, align 4, !tbaa !10
  %28 = zext i32 %27 to i64
  %29 = getelementptr inbounds nuw [29 x i32], ptr @extension_type_table, i64 0, i64 %28
  %30 = load i32, ptr %29, align 4, !tbaa !10
  %31 = load i32, ptr %13, align 4, !tbaa !10
  %32 = load i32, ptr %15, align 4, !tbaa !10
  %33 = shl i32 1, %32
  %34 = and i32 %31, %33
  %35 = icmp ne i32 %34, 0
  %36 = select i1 %35, ptr @.str.8, ptr @.str.9
  %37 = load ptr, ptr %14, align 8, !tbaa !29
  call void @mbedtls_ssl_print_extension(ptr noundef %22, i32 noundef %23, ptr noundef %24, i32 noundef %25, i32 noundef %26, i32 noundef %30, ptr noundef %36, ptr noundef %37)
  br label %38

38:                                               ; preds = %21
  %39 = load i32, ptr %15, align 4, !tbaa !10
  %40 = add i32 %39, 1
  store i32 %40, ptr %15, align 4, !tbaa !10
  br label %16, !llvm.loop !71

41:                                               ; preds = %20
  ret void
}