; Function Attrs: nounwind uwtable
define hidden void @mbedtls_ssl_print_extensions(ptr noundef %0, i32 noundef %1, ptr noundef %2, i32 noundef %3, i32 noundef %4, i32 noundef %5, ptr noundef %6) local_unnamed_addr #1 {
  br label %9

8:                                                ; preds = %9
  ret void

9:                                                ; preds = %7, %9
  %indvars.iv = phi i64 [ 0, %7 ], [ %indvars.iv.next, %9 ]
  %10 = getelementptr inbounds nuw [29 x i32], ptr @extension_type_table, i64 0, i64 %indvars.iv
  %11 = load i32, ptr %10, align 4, !tbaa !32
  %12 = trunc nuw nsw i64 %indvars.iv to i32
  %13 = shl nuw nsw i32 1, %12
  %14 = and i32 %13, %5
  %.not = icmp eq i32 %14, 0
  %15 = select i1 %.not, ptr @.str.9, ptr @.str.8
  tail call void @mbedtls_ssl_print_extension(ptr noundef %0, i32 noundef %1, ptr noundef %2, i32 noundef %3, i32 noundef %4, i32 noundef %11, ptr noundef nonnull %15, ptr noundef %6)
  %indvars.iv.next = add nuw nsw i64 %indvars.iv, 1
  %exitcond.not = icmp eq i64 %indvars.iv.next, 29
  br i1 %exitcond.not, label %8, label %9, !llvm.loop !65
}